target datalayout = "e-m:e-p270:32:32-p271:32:32-p272:64:64-i64:64-i128:128-f80:128-n8:16:32:64-S128"
target triple = "x86_64-pc-linux-gnu"

%struct.JNINativeInterface_ = type { ptr, ptr, ptr, ptr, ptr, ptr, ptr, ptr, ptr, ptr, ptr, ptr, ptr, ptr, ptr, ptr, ptr, ptr, ptr, ptr, ptr, ptr, ptr, ptr, ptr, ptr, ptr, ptr, ptr, ptr, ptr, ptr, ptr, ptr, ptr, ptr, ptr, ptr, ptr, ptr, ptr, ptr, ptr, ptr, ptr, ptr, ptr, ptr, ptr, ptr, ptr, ptr, ptr, ptr, ptr, ptr, ptr, ptr, ptr, ptr, ptr, ptr, ptr, ptr, ptr, ptr, ptr, ptr, ptr, ptr, ptr, ptr, ptr, ptr, ptr, ptr, ptr, ptr, ptr, ptr, ptr, ptr, ptr, ptr, ptr, ptr, ptr, ptr, ptr, ptr, ptr, ptr, ptr, ptr, ptr, ptr, ptr, ptr, ptr, ptr, ptr, ptr, ptr, ptr, ptr, ptr, ptr, ptr, ptr, ptr, ptr, ptr, ptr, ptr, ptr, ptr, ptr, ptr, ptr, ptr, ptr, ptr, ptr, ptr, ptr, ptr, ptr, ptr, ptr, ptr, ptr, ptr, ptr, ptr, ptr, ptr, ptr, ptr, ptr, ptr, ptr, ptr, ptr, ptr, ptr, ptr, ptr, ptr, ptr, ptr, ptr, ptr, ptr, ptr, ptr, ptr, ptr, ptr, ptr, ptr, ptr, ptr, ptr, ptr, ptr, ptr, ptr, ptr, ptr, ptr, ptr, ptr, ptr, ptr, ptr, ptr, ptr, ptr, ptr, ptr, ptr, ptr, ptr, ptr, ptr, ptr, ptr, ptr, ptr, ptr, ptr, ptr, ptr, ptr, ptr, ptr, ptr, ptr, ptr, ptr, ptr, ptr, ptr, ptr, ptr, ptr, ptr, ptr, ptr, ptr, ptr, ptr, ptr, ptr, ptr, ptr, ptr, ptr, ptr, ptr, ptr, ptr, ptr, ptr, ptr, ptr, ptr, ptr, ptr, ptr, ptr, ptr, ptr, ptr, ptr }

@.str = private unnamed_addr constant [6 x i8] c"bands\00", align 1
@.str.1 = private unnamed_addr constant [3 x i8] c"[I\00", align 1
@pBandsArrayID = hidden global ptr null, align 8
@.str.2 = private unnamed_addr constant [9 x i8] c"endIndex\00", align 1
@.str.3 = private unnamed_addr constant [2 x i8] c"I\00", align 1
@pEndIndexID = hidden global ptr null, align 8
@.str.4 = private unnamed_addr constant [7 x i8] c"region\00", align 1
@.str.5 = private unnamed_addr constant [25 x i8] c"Lsun/java2d/pipe/Region;\00", align 1
@pRegionID = hidden global ptr null, align 8
@.str.6 = private unnamed_addr constant [9 x i8] c"curIndex\00", align 1
@pCurIndexID = hidden global ptr null, align 8
@.str.7 = private unnamed_addr constant [10 x i8] c"numXbands\00", align 1
@pNumXbandsID = hidden global ptr null, align 8

; Function Attrs: nounwind uwtable
define void @Java_sun_java2d_pipe_SpanClipRenderer_initIDs(ptr noundef %0, ptr noundef %1, ptr noundef %2, ptr noundef %3) #0 {
  %5 = alloca ptr, align 8
  %6 = alloca ptr, align 8
  %7 = alloca ptr, align 8
  %8 = alloca ptr, align 8
  store ptr %0, ptr %5, align 8
  store ptr %1, ptr %6, align 8
  store ptr %2, ptr %7, align 8
  store ptr %3, ptr %8, align 8
  %9 = load ptr, ptr %5, align 8
  %10 = load ptr, ptr %9, align 8
  %11 = getelementptr inbounds %struct.JNINativeInterface_, ptr %10, i32 0, i32 94
  %12 = load ptr, ptr %11, align 8
  %13 = load ptr, ptr %5, align 8
  %14 = load ptr, ptr %7, align 8
  %15 = call ptr %12(ptr noundef %13, ptr noundef %14, ptr noundef @.str, ptr noundef @.str.1)
  store ptr %15, ptr @pBandsArrayID, align 8
  %16 = load ptr, ptr @pBandsArrayID, align 8
  %17 = icmp eq ptr %16, null
  br i1 %17, label %18, label %19

18:                                               ; preds = %4
  br label %63

19:                                               ; preds = %4
  %20 = load ptr, ptr %5, align 8
  %21 = load ptr, ptr %20, align 8
  %22 = getelementptr inbounds %struct.JNINativeInterface_, ptr %21, i32 0, i32 94
  %23 = load ptr, ptr %22, align 8
  %24 = load ptr, ptr %5, align 8
  %25 = load ptr, ptr %7, align 8
  %26 = call ptr %23(ptr noundef %24, ptr noundef %25, ptr noundef @.str.2, ptr noundef @.str.3)
  store ptr %26, ptr @pEndIndexID, align 8
  %27 = load ptr, ptr @pEndIndexID, align 8
  %28 = icmp eq ptr %27, null
  br i1 %28, label %29, label %30

29:                                               ; preds = %19
  br label %63

30:                                               ; preds = %19
  %31 = load ptr, ptr %5, align 8
  %32 = load ptr, ptr %31, align 8
  %33 = getelementptr inbounds %struct.JNINativeInterface_, ptr %32, i32 0, i32 94
  %34 = load ptr, ptr %33, align 8
  %35 = load ptr, ptr %5, align 8
  %36 = load ptr, ptr %8, align 8
  %37 = call ptr %34(ptr noundef %35, ptr noundef %36, ptr noundef @.str.4, ptr noundef @.str.5)
  store ptr %37, ptr @pRegionID, align 8
  %38 = load ptr, ptr @pRegionID, align 8
  %39 = icmp eq ptr %38, null
  br i1 %39, label %40, label %41

40:                                               ; preds = %30
  br label %63

41:                                               ; preds = %30
  %42 = load ptr, ptr %5, align 8
  %43 = load ptr, ptr %42, align 8
  %44 = getelementptr inbounds %struct.JNINativeInterface_, ptr %43, i32 0, i32 94
  %45 = load ptr, ptr %44, align 8
  %46 = load ptr, ptr %5, align 8
  %47 = load ptr, ptr %8, align 8
  %48 = call ptr %45(ptr noundef %46, ptr noundef %47, ptr noundef @.str.6, ptr noundef @.str.3)
  store ptr %48, ptr @pCurIndexID, align 8
  %49 = load ptr, ptr @pCurIndexID, align 8
  %50 = icmp eq ptr %49, null
  br i1 %50, label %51, label %52

51:                                               ; preds = %41
  br label %63

52:                                               ; preds = %41
  %53 = load ptr, ptr %5, align 8
  %54 = load ptr, ptr %53, align 8
  %55 = getelementptr inbounds %struct.JNINativeInterface_, ptr %54, i32 0, i32 94
  %56 = load ptr, ptr %55, align 8
  %57 = load ptr, ptr %5, align 8
  %58 = load ptr, ptr %8, align 8
  %59 = call ptr %56(ptr noundef %57, ptr noundef %58, ptr noundef @.str.7, ptr noundef @.str.3)
  store ptr %59, ptr @pNumXbandsID, align 8
  %60 = load ptr, ptr @pNumXbandsID, align 8
  %61 = icmp eq ptr %60, null
  br i1 %61, label %62, label %63

62:                                               ; preds = %52
  br label %63

63:                                               ; preds = %62, %52, %51, %40, %29, %18
  ret void
}