; Function Attrs: nounwind uwtable
define void @Java_sun_java2d_pipe_SpanClipRenderer_initIDs(ptr noundef %0, ptr nocapture noundef readnone %1, ptr noundef %2, ptr noundef %3) local_unnamed_addr #0 {
  %5 = load ptr, ptr %0, align 8
  %6 = getelementptr inbounds i8, ptr %5, i64 752
  %7 = load ptr, ptr %6, align 8
  %8 = tail call ptr %7(ptr noundef nonnull %0, ptr noundef %2, ptr noundef nonnull @.str, ptr noundef nonnull @.str.1) #4
  store ptr %8, ptr @pBandsArrayID, align 8
  %9 = icmp eq ptr %8, null
  br i1 %9, label %33, label %10

10:                                               ; preds = %4
  %11 = load ptr, ptr %0, align 8
  %12 = getelementptr inbounds i8, ptr %11, i64 752
  %13 = load ptr, ptr %12, align 8
  %14 = tail call ptr %13(ptr noundef nonnull %0, ptr noundef %2, ptr noundef nonnull @.str.2, ptr noundef nonnull @.str.3) #4
  store ptr %14, ptr @pEndIndexID, align 8
  %15 = icmp eq ptr %14, null
  br i1 %15, label %33, label %16

16:                                               ; preds = %10
  %17 = load ptr, ptr %0, align 8
  %18 = getelementptr inbounds i8, ptr %17, i64 752
  %19 = load ptr, ptr %18, align 8
  %20 = tail call ptr %19(ptr noundef nonnull %0, ptr noundef %3, ptr noundef nonnull @.str.4, ptr noundef nonnull @.str.5) #4
  store ptr %20, ptr @pRegionID, align 8
  %21 = icmp eq ptr %20, null
  br i1 %21, label %33, label %22

22:                                               ; preds = %16
  %23 = load ptr, ptr %0, align 8
  %24 = getelementptr inbounds i8, ptr %23, i64 752
  %25 = load ptr, ptr %24, align 8
  %26 = tail call ptr %25(ptr noundef nonnull %0, ptr noundef %3, ptr noundef nonnull @.str.6, ptr noundef nonnull @.str.3) #4
  store ptr %26, ptr @pCurIndexID, align 8
  %27 = icmp eq ptr %26, null
  br i1 %27, label %33, label %28

28:                                               ; preds = %22
  %29 = load ptr, ptr %0, align 8
  %30 = getelementptr inbounds i8, ptr %29, i64 752
  %31 = load ptr, ptr %30, align 8
  %32 = tail call ptr %31(ptr noundef nonnull %0, ptr noundef %3, ptr noundef nonnull @.str.7, ptr noundef nonnull @.str.3) #4
  store ptr %32, ptr @pNumXbandsID, align 8
  br label %33

33:                                               ; preds = %28, %22, %16, %10, %4
  ret void
}